target datalayout = "e-m:e-p270:32:32-p271:32:32-p272:64:64-i64:64-i128:128-f80:128-n8:16:32:64-S128"
target triple = "x86_64-unknown-linux-gnu"

%struct.QTailQLink = type { ptr, ptr }
%struct.MSGUID = type { i32, i16, i16, [8 x i8] }
%struct.BDRVVHDXState = type <{ %struct.CoMutex, i32, [4 x i8], [2 x ptr], %struct.VHDXRegionTableHeader, %struct.VHDXRegionTableEntry, %struct.VHDXRegionTableEntry, %struct.VHDXMetadataTableHeader, %struct.VHDXMetadataEntries, %struct.VHDXFileParameters, [2 x i8], i32, i32, i32, i32, [4 x i8], i64, i32, i32, i64, i32, i32, i32, [4 x i8], ptr, i64, i8, %struct.MSGUID, [7 x i8], %struct.VHDXLogEntries, %struct.VHDXParentLocatorHeader, [4 x i8], ptr, ptr, i8, [7 x i8], %struct.anon.1 }>
%struct.CoMutex = type { i32, ptr, %struct.anon.0, %struct.anon.0, i32, i32, ptr }
%struct.anon.0 = type { ptr }
%struct.VHDXRegionTableHeader = type { i32, i32, i32, i32 }
%struct.VHDXRegionTableEntry = type { %struct.MSGUID, i64, i32, i32 }
%struct.VHDXMetadataTableHeader = type { i64, i16, i16, [5 x i32] }
%struct.VHDXMetadataEntries = type <{ %struct.VHDXMetadataTableEntry, %struct.VHDXMetadataTableEntry, %struct.VHDXMetadataTableEntry, %struct.VHDXMetadataTableEntry, %struct.VHDXMetadataTableEntry, %struct.VHDXMetadataTableEntry, i16 }>
%struct.VHDXMetadataTableEntry = type { %struct.MSGUID, i32, i32, i32, i32 }
%struct.VHDXFileParameters = type { i32, i32 }
%struct.VHDXLogEntries = type { i64, i64, i32, i32, ptr, ptr, i64, i32 }
%struct.VHDXParentLocatorHeader = type { %struct.MSGUID, i16, i16 }
%struct.anon.1 = type { ptr }
%struct.BlockDriverState = type { i32, i8, i8, i8, i8, i8, ptr, ptr, ptr, %struct.anon.2, i8, [4096 x i8], [4096 x i8], [4096 x i8], [16 x i8], ptr, [4096 x i8], %struct.BlockLimits, i32, i32, i32, i32, [32 x i8], %union.anon.3, %union.anon.4, %union.anon.5, i32, [16 x %struct.anon.6], ptr, %struct.anon.7, ptr, ptr, %struct.anon.8, ptr, ptr, i32, ptr, i64, i64, %struct.QemuMutex, %struct.anon.9, %struct.Stat64, i32, i32, i32, i32, i32, i32, %struct.QemuMutex, %struct.anon.10, %struct.CoQueue, i8, i32, i8, %struct.CoMutex, ptr, ptr }
%struct.anon.2 = type { ptr }
%struct.BlockLimits = type { i32, i64, i32, i64, i32, i32, i32, i64, i32, i64, i64, i32, i8, i32, i32, i32, i32, i32, i32, i32 }
%union.anon.3 = type { %struct.QTailQLink }
%union.anon.4 = type { %struct.QTailQLink }
%union.anon.5 = type { %struct.QTailQLink }
%struct.anon.6 = type { ptr }
%struct.anon.7 = type { ptr }
%struct.anon.8 = type { ptr }
%struct.anon.9 = type { ptr }
%struct.Stat64 = type { i64 }
%struct.QemuMutex = type { %union.pthread_mutex_t, i8 }
%union.pthread_mutex_t = type { %struct.__pthread_mutex_s }
%struct.__pthread_mutex_s = type { i32, i32, i32, i32, i32, i16, i16, %struct.__pthread_internal_list }
%struct.__pthread_internal_list = type { ptr, ptr }
%struct.anon.10 = type { ptr }
%struct.CoQueue = type { %struct.anon.11 }
%struct.anon.11 = type { ptr, ptr }
%struct.VHDXSectorInfo = type { i32, i32, i32, i32, i64, i64 }
%struct.QEMUIOVector = type { ptr, i32, %union.anon.19 }
%union.anon.19 = type { %struct.anon.20 }
%struct.anon.20 = type { i32, %struct.iovec }
%struct.iovec = type { ptr, i64 }

; Function Attrs: nounwind sspstrong uwtable
define internal void @vhdx_block_translate(ptr noundef %s, i64 noundef %sector_num, i32 noundef %nb_sectors, ptr noundef %sinfo) #0 {
entry:
  %s.addr = alloca ptr, align 8
  %sector_num.addr = alloca i64, align 8
  %nb_sectors.addr = alloca i32, align 4
  %sinfo.addr = alloca ptr, align 8
  %block_offset = alloca i32, align 4
  store ptr %s, ptr %s.addr, align 8
  store i64 %sector_num, ptr %sector_num.addr, align 8
  store i32 %nb_sectors, ptr %nb_sectors.addr, align 4
  store ptr %sinfo, ptr %sinfo.addr, align 8
  %0 = load i64, ptr %sector_num.addr, align 8
  %1 = load ptr, ptr %s.addr, align 8
  %sectors_per_block_bits = getelementptr inbounds %struct.BDRVVHDXState, ptr %1, i32 0, i32 14
  %2 = load i32, ptr %sectors_per_block_bits, align 8
  %sh_prom = zext i32 %2 to i64
  %shr = ashr i64 %0, %sh_prom
  %conv = trunc i64 %shr to i32
  %3 = load ptr, ptr %sinfo.addr, align 8
  %bat_idx = getelementptr inbounds %struct.VHDXSectorInfo, ptr %3, i32 0, i32 0
  store i32 %conv, ptr %bat_idx, align 8
  %4 = load i64, ptr %sector_num.addr, align 8
  %5 = load ptr, ptr %sinfo.addr, align 8
  %bat_idx1 = getelementptr inbounds %struct.VHDXSectorInfo, ptr %5, i32 0, i32 0
  %6 = load i32, ptr %bat_idx1, align 8
  %7 = load ptr, ptr %s.addr, align 8
  %sectors_per_block_bits2 = getelementptr inbounds %struct.BDRVVHDXState, ptr %7, i32 0, i32 14
  %8 = load i32, ptr %sectors_per_block_bits2, align 8
  %shl = shl i32 %6, %8
  %conv3 = zext i32 %shl to i64
  %sub = sub i64 %4, %conv3
  %conv4 = trunc i64 %sub to i32
  store i32 %conv4, ptr %block_offset, align 4
  %9 = load ptr, ptr %sinfo.addr, align 8
  %bat_idx5 = getelementptr inbounds %struct.VHDXSectorInfo, ptr %9, i32 0, i32 0
  %10 = load i32, ptr %bat_idx5, align 8
  %11 = load ptr, ptr %s.addr, align 8
  %chunk_ratio_bits = getelementptr inbounds %struct.BDRVVHDXState, ptr %11, i32 0, i32 20
  %12 = load i32, ptr %chunk_ratio_bits, align 8
  %shr6 = lshr i32 %10, %12
  %13 = load ptr, ptr %sinfo.addr, align 8
  %bat_idx7 = getelementptr inbounds %struct.VHDXSectorInfo, ptr %13, i32 0, i32 0
  %14 = load i32, ptr %bat_idx7, align 8
  %add = add i32 %14, %shr6
  store i32 %add, ptr %bat_idx7, align 8
  %15 = load ptr, ptr %s.addr, align 8
  %sectors_per_block = getelementptr inbounds %struct.BDRVVHDXState, ptr %15, i32 0, i32 13
  %16 = load i32, ptr %sectors_per_block, align 4
  %17 = load i32, ptr %block_offset, align 4
  %sub8 = sub i32 %16, %17
  %18 = load ptr, ptr %sinfo.addr, align 8
  %sectors_avail = getelementptr inbounds %struct.VHDXSectorInfo, ptr %18, i32 0, i32 1
  store i32 %sub8, ptr %sectors_avail, align 4
  %19 = load ptr, ptr %sinfo.addr, align 8
  %sectors_avail9 = getelementptr inbounds %struct.VHDXSectorInfo, ptr %19, i32 0, i32 1
  %20 = load i32, ptr %sectors_avail9, align 4
  %21 = load ptr, ptr %s.addr, align 8
  %logical_sector_size_bits = getelementptr inbounds %struct.BDRVVHDXState, ptr %21, i32 0, i32 21
  %22 = load i32, ptr %logical_sector_size_bits, align 4
  %shl10 = shl i32 %20, %22
  %23 = load ptr, ptr %sinfo.addr, align 8
  %bytes_left = getelementptr inbounds %struct.VHDXSectorInfo, ptr %23, i32 0, i32 2
  store i32 %shl10, ptr %bytes_left, align 8
  %24 = load ptr, ptr %sinfo.addr, align 8
  %sectors_avail11 = getelementptr inbounds %struct.VHDXSectorInfo, ptr %24, i32 0, i32 1
  %25 = load i32, ptr %sectors_avail11, align 4
  %26 = load i32, ptr %nb_sectors.addr, align 4
  %cmp = icmp ugt i32 %25, %26
  br i1 %cmp, label %if.then, label %if.end

if.then:                                          ; preds = %entry
  %27 = load i32, ptr %nb_sectors.addr, align 4
  %28 = load ptr, ptr %sinfo.addr, align 8
  %sectors_avail13 = getelementptr inbounds %struct.VHDXSectorInfo, ptr %28, i32 0, i32 1
  store i32 %27, ptr %sectors_avail13, align 4
  br label %if.end

if.end:                                           ; preds = %if.then, %entry
  %29 = load ptr, ptr %sinfo.addr, align 8
  %sectors_avail14 = getelementptr inbounds %struct.VHDXSectorInfo, ptr %29, i32 0, i32 1
  %30 = load i32, ptr %sectors_avail14, align 4
  %31 = load ptr, ptr %s.addr, align 8
  %logical_sector_size_bits15 = getelementptr inbounds %struct.BDRVVHDXState, ptr %31, i32 0, i32 21
  %32 = load i32, ptr %logical_sector_size_bits15, align 4
  %shl16 = shl i32 %30, %32
  %33 = load ptr, ptr %sinfo.addr, align 8
  %bytes_avail = getelementptr inbounds %struct.VHDXSectorInfo, ptr %33, i32 0, i32 3
  store i32 %shl16, ptr %bytes_avail, align 4
  %34 = load ptr, ptr %s.addr, align 8
  %bat = getelementptr inbounds %struct.BDRVVHDXState, ptr %34, i32 0, i32 24
  %35 = load ptr, ptr %bat, align 8
  %36 = load ptr, ptr %sinfo.addr, align 8
  %bat_idx17 = getelementptr inbounds %struct.VHDXSectorInfo, ptr %36, i32 0, i32 0
  %37 = load i32, ptr %bat_idx17, align 8
  %idxprom = zext i32 %37 to i64
  %arrayidx = getelementptr i64, ptr %35, i64 %idxprom
  %38 = load i64, ptr %arrayidx, align 8
  %and = and i64 %38, -1048576
  %39 = load ptr, ptr %sinfo.addr, align 8
  %file_offset = getelementptr inbounds %struct.VHDXSectorInfo, ptr %39, i32 0, i32 4
  store i64 %and, ptr %file_offset, align 8
  %40 = load i32, ptr %block_offset, align 4
  %41 = load ptr, ptr %s.addr, align 8
  %logical_sector_size_bits18 = getelementptr inbounds %struct.BDRVVHDXState, ptr %41, i32 0, i32 21
  %42 = load i32, ptr %logical_sector_size_bits18, align 4
  %shl19 = shl i32 %40, %42
  %conv20 = zext i32 %shl19 to i64
  %43 = load ptr, ptr %sinfo.addr, align 8
  %block_offset21 = getelementptr inbounds %struct.VHDXSectorInfo, ptr %43, i32 0, i32 5
  store i64 %conv20, ptr %block_offset21, align 8
  %44 = load ptr, ptr %sinfo.addr, align 8
  %file_offset22 = getelementptr inbounds %struct.VHDXSectorInfo, ptr %44, i32 0, i32 4
  %45 = load i64, ptr %file_offset22, align 8
  %cmp23 = icmp eq i64 %45, 0
  br i1 %cmp23, label %if.then25, label %if.end26

if.then25:                                        ; preds = %if.end
  br label %return

if.end26:                                         ; preds = %if.end
  %46 = load ptr, ptr %sinfo.addr, align 8
  %block_offset27 = getelementptr inbounds %struct.VHDXSectorInfo, ptr %46, i32 0, i32 5
  %47 = load i64, ptr %block_offset27, align 8
  %48 = load ptr, ptr %sinfo.addr, align 8
  %file_offset28 = getelementptr inbounds %struct.VHDXSectorInfo, ptr %48, i32 0, i32 4
  %49 = load i64, ptr %file_offset28, align 8
  %add29 = add i64 %49, %47
  store i64 %add29, ptr %file_offset28, align 8
  br label %return

return:                                           ; preds = %if.end26, %if.then25
  ret void
}

; Function Attrs: nounwind sspstrong uwtable
define internal i32 @vhdx_co_readv(ptr noundef %bs, i64 noundef %sector_num, i32 noundef %nb_sectors, ptr noundef %qiov) #0 {
entry:
  %bs.addr = alloca ptr, align 8
  %sector_num.addr = alloca i64, align 8
  %nb_sectors.addr = alloca i32, align 4
  %qiov.addr = alloca ptr, align 8
  %s = alloca ptr, align 8
  %ret = alloca i32, align 4
  %sinfo = alloca %struct.VHDXSectorInfo, align 8
  %bytes_done = alloca i64, align 8
  %hd_qiov = alloca %struct.QEMUIOVector, align 8
  store ptr %bs, ptr %bs.addr, align 8
  store i64 %sector_num, ptr %sector_num.addr, align 8
  store i32 %nb_sectors, ptr %nb_sectors.addr, align 4
  store ptr %qiov, ptr %qiov.addr, align 8
  %0 = load ptr, ptr %bs.addr, align 8
  %opaque = getelementptr inbounds %struct.BlockDriverState, ptr %0, i32 0, i32 7
  %1 = load ptr, ptr %opaque, align 8
  store ptr %1, ptr %s, align 8
  store i32 0, ptr %ret, align 4
  store i64 0, ptr %bytes_done, align 8
  %2 = load ptr, ptr %qiov.addr, align 8
  %niov = getelementptr inbounds %struct.QEMUIOVector, ptr %2, i32 0, i32 1
  %3 = load i32, ptr %niov, align 8
  call void @qemu_iovec_init(ptr noundef %hd_qiov, i32 noundef %3)
  %4 = load ptr, ptr %s, align 8
  %lock = getelementptr inbounds %struct.BDRVVHDXState, ptr %4, i32 0, i32 0
  call void @qemu_co_mutex_lock(ptr noundef %lock)
  br label %while.cond

while.cond:                                       ; preds = %if.end19, %entry
  %5 = load i32, ptr %nb_sectors.addr, align 4
  %cmp = icmp sgt i32 %5, 0
  br i1 %cmp, label %while.body, label %while.end

while.body:                                       ; preds = %while.cond
  %6 = load ptr, ptr %s, align 8
  %params = getelementptr inbounds %struct.BDRVVHDXState, ptr %6, i32 0, i32 9
  %data_bits = getelementptr inbounds %struct.VHDXFileParameters, ptr %params, i32 0, i32 1
  %7 = load i32, ptr %data_bits, align 2
  %and = and i32 %7, 2
  %tobool = icmp ne i32 %and, 0
  br i1 %tobool, label %if.then, label %if.else

if.then:                                          ; preds = %while.body
  store i32 -95, ptr %ret, align 4
  br label %exit

if.else:                                          ; preds = %while.body
  %8 = load ptr, ptr %s, align 8
  %9 = load i64, ptr %sector_num.addr, align 8
  %10 = load i32, ptr %nb_sectors.addr, align 4
  call void @vhdx_block_translate(ptr noundef %8, i64 noundef %9, i32 noundef %10, ptr noundef %sinfo)
  call void @qemu_iovec_reset(ptr noundef %hd_qiov)
  %11 = load ptr, ptr %qiov.addr, align 8
  %12 = load i64, ptr %bytes_done, align 8
  %bytes_avail = getelementptr inbounds %struct.VHDXSectorInfo, ptr %sinfo, i32 0, i32 3
  %13 = load i32, ptr %bytes_avail, align 4
  %conv = zext i32 %13 to i64
  call void @qemu_iovec_concat(ptr noundef %hd_qiov, ptr noundef %11, i64 noundef %12, i64 noundef %conv)
  %14 = load ptr, ptr %s, align 8
  %bat = getelementptr inbounds %struct.BDRVVHDXState, ptr %14, i32 0, i32 24
  %15 = load ptr, ptr %bat, align 8
  %bat_idx = getelementptr inbounds %struct.VHDXSectorInfo, ptr %sinfo, i32 0, i32 0
  %16 = load i32, ptr %bat_idx, align 8
  %idxprom = zext i32 %16 to i64
  %arrayidx = getelementptr i64, ptr %15, i64 %idxprom
  %17 = load i64, ptr %arrayidx, align 8
  %and1 = and i64 %17, 7
  switch i64 %and1, label %sw.default [
    i64 0, label %sw.bb
    i64 1, label %sw.bb
    i64 3, label %sw.bb
    i64 5, label %sw.bb
    i64 2, label %sw.bb
    i64 6, label %sw.bb4
    i64 7, label %sw.bb12
  ]

sw.bb:                                            ; preds = %if.else, %if.else, %if.else, %if.else, %if.else
  %bytes_avail2 = getelementptr inbounds %struct.VHDXSectorInfo, ptr %sinfo, i32 0, i32 3
  %18 = load i32, ptr %bytes_avail2, align 4
  %conv3 = zext i32 %18 to i64
  %call = call i64 @qemu_iovec_memset(ptr noundef %hd_qiov, i64 noundef 0, i32 noundef 0, i64 noundef %conv3)
  br label %sw.epilog

sw.bb4:                                           ; preds = %if.else
  %19 = load ptr, ptr %s, align 8
  %lock5 = getelementptr inbounds %struct.BDRVVHDXState, ptr %19, i32 0, i32 0
  call void @qemu_co_mutex_unlock(ptr noundef %lock5)
  %20 = load ptr, ptr %bs.addr, align 8
  %file = getelementptr inbounds %struct.BlockDriverState, ptr %20, i32 0, i32 31
  %21 = load ptr, ptr %file, align 8
  %file_offset = getelementptr inbounds %struct.VHDXSectorInfo, ptr %sinfo, i32 0, i32 4
  %22 = load i64, ptr %file_offset, align 8
  %sectors_avail = getelementptr inbounds %struct.VHDXSectorInfo, ptr %sinfo, i32 0, i32 1
  %23 = load i32, ptr %sectors_avail, align 4
  %conv6 = zext i32 %23 to i64
  %mul = mul i64 %conv6, 512
  %call7 = call i32 @bdrv_co_preadv(ptr noundef %21, i64 noundef %22, i64 noundef %mul, ptr noundef %hd_qiov, i32 noundef 0)
  store i32 %call7, ptr %ret, align 4
  %24 = load ptr, ptr %s, align 8
  %lock8 = getelementptr inbounds %struct.BDRVVHDXState, ptr %24, i32 0, i32 0
  call void @qemu_co_mutex_lock(ptr noundef %lock8)
  %25 = load i32, ptr %ret, align 4
  %cmp9 = icmp slt i32 %25, 0
  br i1 %cmp9, label %if.then11, label %if.end

if.then11:                                        ; preds = %sw.bb4
  br label %exit

if.end:                                           ; preds = %sw.bb4
  br label %sw.epilog

sw.bb12:                                          ; preds = %if.else
  br label %sw.default

sw.default:                                       ; preds = %sw.bb12, %if.else
  store i32 -5, ptr %ret, align 4
  br label %exit

sw.epilog:                                        ; preds = %if.end, %sw.bb
  %sectors_avail13 = getelementptr inbounds %struct.VHDXSectorInfo, ptr %sinfo, i32 0, i32 1
  %26 = load i32, ptr %sectors_avail13, align 4
  %27 = load i32, ptr %nb_sectors.addr, align 4
  %sub = sub i32 %27, %26
  store i32 %sub, ptr %nb_sectors.addr, align 4
  %sectors_avail14 = getelementptr inbounds %struct.VHDXSectorInfo, ptr %sinfo, i32 0, i32 1
  %28 = load i32, ptr %sectors_avail14, align 4
  %conv15 = zext i32 %28 to i64
  %29 = load i64, ptr %sector_num.addr, align 8
  %add = add i64 %29, %conv15
  store i64 %add, ptr %sector_num.addr, align 8
  %bytes_avail16 = getelementptr inbounds %struct.VHDXSectorInfo, ptr %sinfo, i32 0, i32 3
  %30 = load i32, ptr %bytes_avail16, align 4
  %conv17 = zext i32 %30 to i64
  %31 = load i64, ptr %bytes_done, align 8
  %add18 = add i64 %31, %conv17
  store i64 %add18, ptr %bytes_done, align 8
  br label %if.end19

if.end19:                                         ; preds = %sw.epilog
  br label %while.cond, !llvm.loop !7

while.end:                                        ; preds = %while.cond
  store i32 0, ptr %ret, align 4
  br label %exit

exit:                                             ; preds = %while.end, %sw.default, %if.then11, %if.then
  %32 = load ptr, ptr %s, align 8
  %lock20 = getelementptr inbounds %struct.BDRVVHDXState, ptr %32, i32 0, i32 0
  call void @qemu_co_mutex_unlock(ptr noundef %lock20)
  call void @qemu_iovec_destroy(ptr noundef %hd_qiov)
  %33 = load i32, ptr %ret, align 4
  ret i32 %33
}