; Function Attrs: nounwind sspstrong uwtable
define internal range(i32 -2147483648, 1) i32 @vhdx_co_readv(ptr noundef readonly captures(none) %bs, i64 noundef %sector_num, i32 noundef %nb_sectors, ptr noundef %qiov) #0 {
entry:
  %hd_qiov = alloca %struct.QEMUIOVector, align 8
  %opaque = getelementptr inbounds nuw i8, ptr %bs, i64 24
  %0 = load ptr, ptr %opaque, align 8
  %niov = getelementptr inbounds nuw i8, ptr %qiov, i64 8
  %1 = load i32, ptr %niov, align 8
  call void @qemu_iovec_init(ptr noundef nonnull %hd_qiov, i32 noundef %1) #17
  call void @qemu_co_mutex_lock(ptr noundef %0) #17
  %cmp18 = icmp sgt i32 %nb_sectors, 0
  br i1 %cmp18, label %while.body.lr.ph, label %exit

while.body.lr.ph:                                 ; preds = %entry
  %data_bits = getelementptr inbounds nuw i8, ptr %0, i64 382
  %sectors_per_block_bits.i = getelementptr inbounds nuw i8, ptr %0, i64 400
  %chunk_ratio_bits.i = getelementptr inbounds nuw i8, ptr %0, i64 432
  %sectors_per_block.i = getelementptr inbounds nuw i8, ptr %0, i64 396
  %logical_sector_size_bits.i = getelementptr inbounds nuw i8, ptr %0, i64 436
  %bat.i = getelementptr inbounds nuw i8, ptr %0, i64 448
  %file = getelementptr inbounds nuw i8, ptr %bs, i64 16840
  br label %while.body

while.body:                                       ; preds = %while.body.lr.ph, %sw.epilog
  %bytes_done.021 = phi i64 [ 0, %while.body.lr.ph ], [ %add18, %sw.epilog ]
  %sector_num.addr.020 = phi i64 [ %sector_num, %while.body.lr.ph ], [ %add, %sw.epilog ]
  %nb_sectors.addr.019 = phi i32 [ %nb_sectors, %while.body.lr.ph ], [ %sub, %sw.epilog ]
  %2 = load i32, ptr %data_bits, align 2
  %and = and i32 %2, 2
  %tobool.not = icmp eq i32 %and, 0
  br i1 %tobool.not, label %if.else, label %exit

if.else:                                          ; preds = %while.body
  %3 = load i32, ptr %sectors_per_block_bits.i, align 8
  %sh_prom.i = zext nneg i32 %3 to i64
  %shr.i = ashr i64 %sector_num.addr.020, %sh_prom.i
  %conv.i = trunc i64 %shr.i to i32
  %shl.i = shl i32 %conv.i, %3
  %4 = trunc i64 %sector_num.addr.020 to i32
  %conv4.i = sub i32 %4, %shl.i
  %5 = load i32, ptr %chunk_ratio_bits.i, align 8
  %shr6.i = lshr i32 %conv.i, %5
  %add.i = add i32 %shr6.i, %conv.i
  %6 = load i32, ptr %sectors_per_block.i, align 4
  %sub8.i = sub i32 %6, %conv4.i
  %7 = load i32, ptr %logical_sector_size_bits.i, align 4
  %spec.select = call i32 @llvm.umin.i32(i32 %sub8.i, i32 %nb_sectors.addr.019)
  %shl16.i = shl i32 %spec.select, %7
  %8 = load ptr, ptr %bat.i, align 8
  %idxprom.i = zext i32 %add.i to i64
  %arrayidx.i = getelementptr i64, ptr %8, i64 %idxprom.i
  %9 = load i64, ptr %arrayidx.i, align 8
  call void @qemu_iovec_reset(ptr noundef nonnull %hd_qiov) #17
  %conv = zext i32 %shl16.i to i64
  call void @qemu_iovec_concat(ptr noundef nonnull %hd_qiov, ptr noundef %qiov, i64 noundef %bytes_done.021, i64 noundef %conv) #17
  %10 = load ptr, ptr %bat.i, align 8
  %arrayidx = getelementptr i64, ptr %10, i64 %idxprom.i
  %11 = load i64, ptr %arrayidx, align 8
  %and1 = and i64 %11, 7
  switch i64 %and1, label %default.unreachable27 [
    i64 0, label %sw.bb
    i64 1, label %sw.bb
    i64 3, label %sw.bb
    i64 5, label %sw.bb
    i64 2, label %sw.bb
    i64 6, label %sw.bb4
    i64 7, label %exit
    i64 4, label %exit
  ]

sw.bb:                                            ; preds = %if.else, %if.else, %if.else, %if.else, %if.else
  %call = call i64 @qemu_iovec_memset(ptr noundef nonnull %hd_qiov, i64 noundef 0, i32 noundef 0, i64 noundef %conv) #17
  %.pre = zext nneg i32 %spec.select to i64
  br label %sw.epilog

sw.bb4:                                           ; preds = %if.else
  %and.i = and i64 %9, -1048576
  %cmp23.i = icmp eq i64 %and.i, 0
  %shl19.i = shl i32 %conv4.i, %7
  %conv20.i = zext i32 %shl19.i to i64
  %add29.i = add i64 %and.i, %conv20.i
  %sinfo.sroa.12.0 = select i1 %cmp23.i, i64 0, i64 %add29.i
  call void @qemu_co_mutex_unlock(ptr noundef nonnull %0) #17
  %12 = load ptr, ptr %file, align 8
  %conv6 = zext nneg i32 %spec.select to i64
  %mul = shl nuw nsw i64 %conv6, 9
  %call7 = call i32 @bdrv_co_preadv(ptr noundef %12, i64 noundef %sinfo.sroa.12.0, i64 noundef %mul, ptr noundef nonnull %hd_qiov, i32 noundef 0) #17
  call void @qemu_co_mutex_lock(ptr noundef nonnull %0) #17
  %cmp9 = icmp slt i32 %call7, 0
  br i1 %cmp9, label %exit, label %sw.epilog

default.unreachable27:                            ; preds = %if.else
  unreachable

sw.epilog:                                        ; preds = %sw.bb4, %sw.bb
  %conv15.pre-phi = phi i64 [ %conv6, %sw.bb4 ], [ %.pre, %sw.bb ]
  %sub = sub nsw i32 %nb_sectors.addr.019, %spec.select
  %add = add i64 %sector_num.addr.020, %conv15.pre-phi
  %add18 = add i64 %bytes_done.021, %conv
  %cmp = icmp sgt i32 %sub, 0
  br i1 %cmp, label %while.body, label %exit, !llvm.loop !10

exit:                                             ; preds = %sw.bb4, %while.body, %if.else, %if.else, %sw.epilog, %entry
  %ret.0 = phi i32 [ 0, %entry ], [ 0, %sw.epilog ], [ -5, %if.else ], [ -5, %if.else ], [ -95, %while.body ], [ %call7, %sw.bb4 ]
  call void @qemu_co_mutex_unlock(ptr noundef %0) #17
  call void @qemu_iovec_destroy(ptr noundef nonnull %hd_qiov) #17
  ret i32 %ret.0
}